target datalayout = "e-m:e-p270:32:32-p271:32:32-p272:64:64-i64:64-i128:128-f80:128-n8:16:32:64-S128"
target triple = "x86_64-pc-linux-gnu"

%class.symbol = type { ptr }
%"class.datatype::util" = type { ptr, i32, ptr }
%class.svector.7 = type { %class.vector.8 }
%class.vector.8 = type { ptr }
%class.obj_map.24 = type { %class.core_hashtable.25 }
%class.core_hashtable.25 = type <{ ptr, i32, i32, i32, [4 x i8] }>
%class.ast_manager = type { %class.reslimit, %class.small_object_allocator, %class.family_manager, %class.parray_manager, %class.dependency_manager, %class.parray_manager.13, %class.ptr_vector.16, i32, i8, %class.ast_table, %class.obj_map, %class.id_gen, %class.id_gen, ptr, ptr, ptr, ptr, ptr, i32, i8, [3 x i8], %class.u_map, ptr, i8, i8, ptr, %class.symbol, %class.obj_map.24, ptr }
%class.reslimit = type { %"struct.std::atomic", i8, i64, i64, %class.svector, %class.ptr_vector.2 }
%"struct.std::atomic" = type { %"struct.std::__atomic_base" }
%"struct.std::__atomic_base" = type { i32 }
%class.svector = type { %class.vector.1 }
%class.vector.1 = type { ptr }
%class.ptr_vector.2 = type { %class.vector.3 }
%class.vector.3 = type { ptr }
%class.small_object_allocator = type { [32 x ptr], [32 x ptr], i64 }
%class.family_manager = type { i32, %class.symbol_table, %class.svector.7 }
%class.symbol_table = type { %class.core_hashtable, %class.vector.4, %class.svector.5 }
%class.core_hashtable = type <{ ptr, i32, i32, i32, [4 x i8] }>
%class.vector.4 = type { ptr }
%class.svector.5 = type { %class.vector.6 }
%class.vector.6 = type { ptr }
%class.parray_manager = type { ptr, ptr, %class.ptr_vector.9, %class.ptr_vector.9 }
%class.ptr_vector.9 = type { %class.vector.10 }
%class.vector.10 = type { ptr }
%class.dependency_manager = type { ptr, ptr, %class.ptr_vector.11 }
%class.ptr_vector.11 = type { %class.vector.12 }
%class.vector.12 = type { ptr }
%class.parray_manager.13 = type { ptr, ptr, %class.ptr_vector.14, %class.ptr_vector.14 }
%class.ptr_vector.14 = type { %class.vector.15 }
%class.vector.15 = type { ptr }
%class.ptr_vector.16 = type { %class.vector.17 }
%class.vector.17 = type { ptr }
%class.ast_table = type { %class.chashtable }
%class.chashtable = type { ptr, i32, i32, i32, i32, i32, i32, i32, ptr, ptr, ptr }
%class.obj_map = type { %class.core_hashtable.18 }
%class.core_hashtable.18 = type <{ ptr, i32, i32, i32, [4 x i8] }>
%class.id_gen = type { i32, %class.svector.20 }
%class.svector.20 = type { %class.vector.21 }
%class.vector.21 = type { ptr }
%class.u_map = type { %class.map }
%class.map = type { %class.table2map }
%class.table2map = type { %class.core_hashtable.22 }
%class.core_hashtable.22 = type <{ ptr, i32, i32, i32, [4 x i8] }>

@_ZTI11decl_plugin = external constant ptr
@_ZTIN8datatype4decl6pluginE = hidden constant { ptr, ptr, ptr } { ptr getelementptr inbounds (ptr, ptr @_ZTVN10__cxxabiv120__si_class_type_infoE, i64 2), ptr @_ZTSN8datatype4decl6pluginE, ptr @_ZTI11decl_plugin }, align 8
@.str.34 = private unnamed_addr constant [9 x i8] c"datatype\00", align 1

; Function Attrs: mustprogress uwtable
define linkonce_odr hidden noundef i32 @_ZNK11ast_manager13get_family_idERK6symbol(ptr noundef nonnull align 8 dereferenceable(976) %0, ptr noundef nonnull align 8 dereferenceable(8) %1) #4 comdat align 2 {
  %3 = alloca ptr, align 8
  %4 = alloca ptr, align 8
  store ptr %0, ptr %3, align 8, !tbaa !25
  store ptr %1, ptr %4, align 8, !tbaa !49
  %5 = load ptr, ptr %3, align 8
  %6 = getelementptr inbounds nuw %class.ast_manager, ptr %5, i32 0, i32 2
  %7 = load ptr, ptr %4, align 8, !tbaa !49
  %8 = call noundef i32 @_ZNK14family_manager13get_family_idERK6symbol(ptr noundef nonnull align 8 dereferenceable(56) %6, ptr noundef nonnull align 8 dereferenceable(8) %7)
  ret i32 %8
}

; Function Attrs: mustprogress uwtable
define linkonce_odr hidden noundef i32 @_ZNK11ast_manager13get_family_idEPKc(ptr noundef nonnull align 8 dereferenceable(976) %0, ptr noundef %1) #4 comdat align 2 {
  %3 = alloca ptr, align 8
  %4 = alloca ptr, align 8
  %5 = alloca %class.symbol, align 8
  store ptr %0, ptr %3, align 8, !tbaa !25
  store ptr %1, ptr %4, align 8, !tbaa !86
  %6 = load ptr, ptr %3, align 8
  call void @llvm.lifetime.start.p0(i64 8, ptr %5) #3
  %7 = load ptr, ptr %4, align 8, !tbaa !86
  call void @_ZN6symbolC1EPKc(ptr noundef nonnull align 8 dereferenceable(8) %5, ptr noundef %7)
  %8 = call noundef i32 @_ZNK11ast_manager13get_family_idERK6symbol(ptr noundef nonnull align 8 dereferenceable(976) %6, ptr noundef nonnull align 8 dereferenceable(8) %5)
  call void @llvm.lifetime.end.p0(i64 8, ptr %5) #3
  ret i32 %8
}

; Function Attrs: mustprogress uwtable
define hidden noundef i32 @_ZNK8datatype4util3fidEv(ptr noundef nonnull align 8 dereferenceable(24) %0) #4 align 2 {
  %2 = alloca ptr, align 8
  store ptr %0, ptr %2, align 8, !tbaa !52
  %3 = load ptr, ptr %2, align 8
  %4 = getelementptr inbounds nuw %"class.datatype::util", ptr %3, i32 0, i32 1
  %5 = load i32, ptr %4, align 8, !tbaa !477
  %6 = icmp eq i32 %5, -1
  br i1 %6, label %7, label %12

7:                                                ; preds = %1
  %8 = getelementptr inbounds nuw %"class.datatype::util", ptr %3, i32 0, i32 0
  %9 = load ptr, ptr %8, align 8, !tbaa !60
  %10 = call noundef i32 @_ZNK11ast_manager13get_family_idEPKc(ptr noundef nonnull align 8 dereferenceable(976) %9, ptr noundef @.str.34)
  %11 = getelementptr inbounds nuw %"class.datatype::util", ptr %3, i32 0, i32 1
  store i32 %10, ptr %11, align 8, !tbaa !477
  br label %12

12:                                               ; preds = %7, %1
  %13 = getelementptr inbounds nuw %"class.datatype::util", ptr %3, i32 0, i32 1
  %14 = load i32, ptr %13, align 8, !tbaa !477
  ret i32 %14
}

; Function Attrs: mustprogress uwtable
define hidden noundef nonnull align 8 dereferenceable(360) ptr @_ZNK8datatype4util6pluginEv(ptr noundef nonnull align 8 dereferenceable(24) %0) #4 align 2 {
  %2 = alloca ptr, align 8
  store ptr %0, ptr %2, align 8, !tbaa !52
  %3 = load ptr, ptr %2, align 8
  %4 = getelementptr inbounds nuw %"class.datatype::util", ptr %3, i32 0, i32 2
  %5 = load ptr, ptr %4, align 8, !tbaa !451
  %6 = icmp ne ptr %5, null
  br i1 %6, label %19, label %7

7:                                                ; preds = %1
  %8 = getelementptr inbounds nuw %"class.datatype::util", ptr %3, i32 0, i32 0
  %9 = load ptr, ptr %8, align 8, !tbaa !60
  %10 = call noundef i32 @_ZNK8datatype4util3fidEv(ptr noundef nonnull align 8 dereferenceable(24) %3)
  %11 = call noundef ptr @_ZNK11ast_manager10get_pluginEi(ptr noundef nonnull align 8 dereferenceable(976) %9, i32 noundef %10)
  %12 = icmp eq ptr %11, null
  br i1 %12, label %15, label %13

13:                                               ; preds = %7
  %14 = call ptr @__dynamic_cast(ptr %11, ptr @_ZTI11decl_plugin, ptr @_ZTIN8datatype4decl6pluginE, i64 0) #3
  br label %16

15:                                               ; preds = %7
  br label %16

16:                                               ; preds = %15, %13
  %17 = phi ptr [ %14, %13 ], [ null, %15 ]
  %18 = getelementptr inbounds nuw %"class.datatype::util", ptr %3, i32 0, i32 2
  store ptr %17, ptr %18, align 8, !tbaa !451
  br label %19

19:                                               ; preds = %16, %1
  %20 = getelementptr inbounds nuw %"class.datatype::util", ptr %3, i32 0, i32 2
  %21 = load ptr, ptr %20, align 8, !tbaa !451
  ret ptr %21
}

; Function Attrs: mustprogress uwtable
define hidden noundef nonnull align 8 dereferenceable(80) ptr @_ZNK8datatype4util7get_defEP4sort(ptr noundef nonnull align 8 dereferenceable(24) %0, ptr noundef %1) #4 align 2 {
  %3 = alloca ptr, align 8
  %4 = alloca ptr, align 8
  store ptr %0, ptr %3, align 8, !tbaa !52
  store ptr %1, ptr %4, align 8, !tbaa !23
  %5 = load ptr, ptr %3, align 8
  %6 = call noundef nonnull align 8 dereferenceable(360) ptr @_ZNK8datatype4util6pluginEv(ptr noundef nonnull align 8 dereferenceable(24) %5)
  %7 = load ptr, ptr %4, align 8, !tbaa !23
  %8 = call noundef nonnull align 8 dereferenceable(80) ptr @_ZNK8datatype4decl6plugin7get_defEP4sort(ptr noundef nonnull align 8 dereferenceable(360) %6, ptr noundef %7)
  ret ptr %8
}