; Function Attrs: mustprogress uwtable
define hidden noundef nonnull align 8 dereferenceable(80) ptr @_ZNK8datatype4util7get_defEP4sort(ptr noundef nonnull align 8 captures(none) dereferenceable(24) %0, ptr noundef %1) local_unnamed_addr #4 align 2 {
  %3 = alloca %class.symbol, align 8
  %4 = getelementptr inbounds nuw i8, ptr %0, i64 16
  %5 = load ptr, ptr %4, align 8, !tbaa !254
  %.not.i = icmp eq ptr %5, null
  br i1 %.not.i, label %6, label %_ZNK8datatype4util6pluginEv.exit

6:                                                ; preds = %2
  %7 = load ptr, ptr %0, align 8, !tbaa !50
  %8 = getelementptr inbounds nuw i8, ptr %0, i64 8
  %9 = load i32, ptr %8, align 8, !tbaa !47
  %10 = icmp eq i32 %9, -1
  br i1 %10, label %11, label %_ZNK8datatype4util3fidEv.exit.i

11:                                               ; preds = %6
  call void @llvm.lifetime.start.p0(i64 8, ptr nonnull %3) #28
  call void @_ZN6symbolC1EPKc(ptr noundef nonnull align 8 dereferenceable(8) %3, ptr noundef nonnull @.str.34)
  %12 = getelementptr inbounds nuw i8, ptr %7, i64 560
  %13 = call noundef i32 @_ZNK14family_manager13get_family_idERK6symbol(ptr noundef nonnull align 8 dereferenceable(56) %12, ptr noundef nonnull align 8 dereferenceable(8) %3)
  call void @llvm.lifetime.end.p0(i64 8, ptr nonnull %3) #28
  store i32 %13, ptr %8, align 8, !tbaa !47
  br label %_ZNK8datatype4util3fidEv.exit.i

_ZNK8datatype4util3fidEv.exit.i:                  ; preds = %11, %6
  %14 = phi i32 [ %13, %11 ], [ %9, %6 ]
  %15 = call noundef ptr @_ZNK11ast_manager10get_pluginEi(ptr noundef nonnull align 8 dereferenceable(976) %7, i32 noundef %14)
  %16 = icmp eq ptr %15, null
  br i1 %16, label %19, label %17

17:                                               ; preds = %_ZNK8datatype4util3fidEv.exit.i
  %18 = call ptr @__dynamic_cast(ptr nonnull %15, ptr nonnull @_ZTI11decl_plugin, ptr nonnull @_ZTIN8datatype4decl6pluginE, i64 0) #28
  br label %19

19:                                               ; preds = %17, %_ZNK8datatype4util3fidEv.exit.i
  %20 = phi ptr [ %18, %17 ], [ null, %_ZNK8datatype4util3fidEv.exit.i ]
  store ptr %20, ptr %4, align 8, !tbaa !254
  br label %_ZNK8datatype4util6pluginEv.exit

_ZNK8datatype4util6pluginEv.exit:                 ; preds = %2, %19
  %21 = phi ptr [ %20, %19 ], [ %5, %2 ]
  %22 = call noundef nonnull align 8 dereferenceable(80) ptr @_ZNK8datatype4decl6plugin7get_defEP4sort(ptr noundef nonnull align 8 dereferenceable(360) %21, ptr noundef %1)
  ret ptr %22
}